; Function Attrs: nounwind uwtable
define internal ptr @number_and(ptr readnone captures(none) %0, ptr noundef %1) #0 {
  %3 = alloca ptr, align 8
  %4 = alloca ptr, align 8
  call void @llvm.lifetime.start.p0(i64 8, ptr nonnull %3) #3
  call void @llvm.lifetime.start.p0(i64 8, ptr nonnull %4) #3
  %5 = call i32 (ptr, ptr, ...) @PyArg_ParseTuple(ptr noundef %1, ptr noundef nonnull @.str.38, ptr noundef nonnull %3, ptr noundef nonnull %4) #3
  %.not = icmp eq i32 %5, 0
  br i1 %.not, label %18, label %6

6:                                                ; preds = %2
  %7 = load ptr, ptr %3, align 8, !tbaa !3
  %8 = icmp eq ptr %7, @_Py_NoneStruct
  br i1 %8, label %9, label %10

9:                                                ; preds = %6
  store ptr null, ptr %3, align 8, !tbaa !3
  br label %10

10:                                               ; preds = %6, %9
  %11 = phi ptr [ %7, %6 ], [ null, %9 ]
  %12 = load ptr, ptr %4, align 8, !tbaa !3
  %13 = icmp eq ptr %12, @_Py_NoneStruct
  br i1 %13, label %14, label %15

14:                                               ; preds = %10
  store ptr null, ptr %4, align 8, !tbaa !3
  br label %15

15:                                               ; preds = %14, %10
  %16 = phi ptr [ null, %14 ], [ %12, %10 ]
  %17 = call ptr @PyNumber_And(ptr noundef %11, ptr noundef %16) #3
  br label %18

18:                                               ; preds = %2, %15
  %.0 = phi ptr [ %17, %15 ], [ null, %2 ]
  call void @llvm.lifetime.end.p0(i64 8, ptr nonnull %4) #3
  call void @llvm.lifetime.end.p0(i64 8, ptr nonnull %3) #3
  ret ptr %.0
}